target datalayout = "e-m:e-p270:32:32-p271:32:32-p272:64:64-i64:64-i128:128-f80:128-n8:16:32:64-S128"
target triple = "x86_64-pc-linux-gnu"

%struct.TParser = type { ptr, i32, ptr, ptr, i8, i32, ptr, i8, i8, i8, ptr, i32, i32, i32 }
%struct.TParserPosition = type { i32, i32, i32, i32, i32, i32, ptr, ptr }

; Function Attrs: nounwind uwtable
define internal void @TParserCopyClose(ptr noundef %0) #0 {
  %2 = alloca ptr, align 8
  %3 = alloca ptr, align 8
  store ptr %0, ptr %2, align 8
  br label %4

4:                                                ; preds = %9, %1
  %5 = load ptr, ptr %2, align 8
  %6 = getelementptr inbounds nuw %struct.TParser, ptr %5, i32 0, i32 6
  %7 = load ptr, ptr %6, align 8
  %8 = icmp ne ptr %7, null
  br i1 %8, label %9, label %21

9:                                                ; preds = %4
  call void @llvm.lifetime.start.p0(i64 8, ptr %3) #11
  %10 = load ptr, ptr %2, align 8
  %11 = getelementptr inbounds nuw %struct.TParser, ptr %10, i32 0, i32 6
  %12 = load ptr, ptr %11, align 8
  %13 = getelementptr inbounds nuw %struct.TParserPosition, ptr %12, i32 0, i32 6
  %14 = load ptr, ptr %13, align 8
  store ptr %14, ptr %3, align 8
  %15 = load ptr, ptr %2, align 8
  %16 = getelementptr inbounds nuw %struct.TParser, ptr %15, i32 0, i32 6
  %17 = load ptr, ptr %16, align 8
  call void @pfree(ptr noundef %17)
  %18 = load ptr, ptr %3, align 8
  %19 = load ptr, ptr %2, align 8
  %20 = getelementptr inbounds nuw %struct.TParser, ptr %19, i32 0, i32 6
  store ptr %18, ptr %20, align 8
  call void @llvm.lifetime.end.p0(i64 8, ptr %3) #11
  br label %4, !llvm.loop !31

21:                                               ; preds = %4
  %22 = load ptr, ptr %2, align 8
  call void @pfree(ptr noundef %22)
  ret void
}

; Function Attrs: nounwind uwtable
define internal ptr @newTParserPosition(ptr noundef %0) #0 {
  %2 = alloca ptr, align 8
  %3 = alloca ptr, align 8
  store ptr %0, ptr %2, align 8
  call void @llvm.lifetime.start.p0(i64 8, ptr %3) #11
  %4 = call ptr @palloc(i64 noundef 40)
  store ptr %4, ptr %3, align 8
  %5 = load ptr, ptr %2, align 8
  %6 = icmp ne ptr %5, null
  br i1 %6, label %7, label %10

7:                                                ; preds = %1
  %8 = load ptr, ptr %3, align 8
  %9 = load ptr, ptr %2, align 8
  call void @llvm.memcpy.p0.p0.i64(ptr align 8 %8, ptr align 8 %9, i64 40, i1 false)
  br label %12

10:                                               ; preds = %1
  %11 = load ptr, ptr %3, align 8
  call void @llvm.memset.p0.i64(ptr align 8 %11, i8 0, i64 40, i1 false)
  br label %12

12:                                               ; preds = %10, %7
  %13 = load ptr, ptr %2, align 8
  %14 = load ptr, ptr %3, align 8
  %15 = getelementptr inbounds nuw %struct.TParserPosition, ptr %14, i32 0, i32 6
  store ptr %13, ptr %15, align 8
  %16 = load ptr, ptr %3, align 8
  %17 = getelementptr inbounds nuw %struct.TParserPosition, ptr %16, i32 0, i32 7
  store ptr null, ptr %17, align 8
  %18 = load ptr, ptr %3, align 8
  call void @llvm.lifetime.end.p0(i64 8, ptr %3) #11
  ret ptr %18
}

; Function Attrs: nounwind uwtable
define internal ptr @TParserCopyInit(ptr noundef %0) #0 {
  %2 = alloca ptr, align 8
  %3 = alloca ptr, align 8
  store ptr %0, ptr %2, align 8
  call void @llvm.lifetime.start.p0(i64 8, ptr %3) #11
  %4 = call ptr @palloc0(i64 noundef 80)
  store ptr %4, ptr %3, align 8
  %5 = load ptr, ptr %2, align 8
  %6 = getelementptr inbounds nuw %struct.TParser, ptr %5, i32 0, i32 5
  %7 = load i32, ptr %6, align 4
  %8 = load ptr, ptr %3, align 8
  %9 = getelementptr inbounds nuw %struct.TParser, ptr %8, i32 0, i32 5
  store i32 %7, ptr %9, align 4
  %10 = load ptr, ptr %2, align 8
  %11 = getelementptr inbounds nuw %struct.TParser, ptr %10, i32 0, i32 0
  %12 = load ptr, ptr %11, align 8
  %13 = load ptr, ptr %2, align 8
  %14 = getelementptr inbounds nuw %struct.TParser, ptr %13, i32 0, i32 6
  %15 = load ptr, ptr %14, align 8
  %16 = getelementptr inbounds nuw %struct.TParserPosition, ptr %15, i32 0, i32 0
  %17 = load i32, ptr %16, align 8
  %18 = sext i32 %17 to i64
  %19 = getelementptr inbounds i8, ptr %12, i64 %18
  %20 = load ptr, ptr %3, align 8
  %21 = getelementptr inbounds nuw %struct.TParser, ptr %20, i32 0, i32 0
  store ptr %19, ptr %21, align 8
  %22 = load ptr, ptr %2, align 8
  %23 = getelementptr inbounds nuw %struct.TParser, ptr %22, i32 0, i32 1
  %24 = load i32, ptr %23, align 8
  %25 = load ptr, ptr %2, align 8
  %26 = getelementptr inbounds nuw %struct.TParser, ptr %25, i32 0, i32 6
  %27 = load ptr, ptr %26, align 8
  %28 = getelementptr inbounds nuw %struct.TParserPosition, ptr %27, i32 0, i32 0
  %29 = load i32, ptr %28, align 8
  %30 = sub i32 %24, %29
  %31 = load ptr, ptr %3, align 8
  %32 = getelementptr inbounds nuw %struct.TParser, ptr %31, i32 0, i32 1
  store i32 %30, ptr %32, align 8
  %33 = load ptr, ptr %2, align 8
  %34 = getelementptr inbounds nuw %struct.TParser, ptr %33, i32 0, i32 4
  %35 = load i8, ptr %34, align 8, !range !4, !noundef !5
  %36 = trunc i8 %35 to i1
  %37 = load ptr, ptr %3, align 8
  %38 = getelementptr inbounds nuw %struct.TParser, ptr %37, i32 0, i32 4
  %39 = zext i1 %36 to i8
  store i8 %39, ptr %38, align 8
  %40 = load ptr, ptr %2, align 8
  %41 = getelementptr inbounds nuw %struct.TParser, ptr %40, i32 0, i32 3
  %42 = load ptr, ptr %41, align 8
  %43 = icmp ne ptr %42, null
  br i1 %43, label %44, label %57

44:                                               ; preds = %1
  %45 = load ptr, ptr %2, align 8
  %46 = getelementptr inbounds nuw %struct.TParser, ptr %45, i32 0, i32 3
  %47 = load ptr, ptr %46, align 8
  %48 = load ptr, ptr %2, align 8
  %49 = getelementptr inbounds nuw %struct.TParser, ptr %48, i32 0, i32 6
  %50 = load ptr, ptr %49, align 8
  %51 = getelementptr inbounds nuw %struct.TParserPosition, ptr %50, i32 0, i32 1
  %52 = load i32, ptr %51, align 4
  %53 = sext i32 %52 to i64
  %54 = getelementptr inbounds i32, ptr %47, i64 %53
  %55 = load ptr, ptr %3, align 8
  %56 = getelementptr inbounds nuw %struct.TParser, ptr %55, i32 0, i32 3
  store ptr %54, ptr %56, align 8
  br label %57

57:                                               ; preds = %44, %1
  %58 = load ptr, ptr %2, align 8
  %59 = getelementptr inbounds nuw %struct.TParser, ptr %58, i32 0, i32 2
  %60 = load ptr, ptr %59, align 8
  %61 = icmp ne ptr %60, null
  br i1 %61, label %62, label %75

62:                                               ; preds = %57
  %63 = load ptr, ptr %2, align 8
  %64 = getelementptr inbounds nuw %struct.TParser, ptr %63, i32 0, i32 2
  %65 = load ptr, ptr %64, align 8
  %66 = load ptr, ptr %2, align 8
  %67 = getelementptr inbounds nuw %struct.TParser, ptr %66, i32 0, i32 6
  %68 = load ptr, ptr %67, align 8
  %69 = getelementptr inbounds nuw %struct.TParserPosition, ptr %68, i32 0, i32 1
  %70 = load i32, ptr %69, align 4
  %71 = sext i32 %70 to i64
  %72 = getelementptr inbounds i32, ptr %65, i64 %71
  %73 = load ptr, ptr %3, align 8
  %74 = getelementptr inbounds nuw %struct.TParser, ptr %73, i32 0, i32 2
  store ptr %72, ptr %74, align 8
  br label %75

75:                                               ; preds = %62, %57
  %76 = call ptr @newTParserPosition(ptr noundef null)
  %77 = load ptr, ptr %3, align 8
  %78 = getelementptr inbounds nuw %struct.TParser, ptr %77, i32 0, i32 6
  store ptr %76, ptr %78, align 8
  %79 = load ptr, ptr %3, align 8
  %80 = getelementptr inbounds nuw %struct.TParser, ptr %79, i32 0, i32 6
  %81 = load ptr, ptr %80, align 8
  %82 = getelementptr inbounds nuw %struct.TParserPosition, ptr %81, i32 0, i32 5
  store i32 0, ptr %82, align 4
  %83 = load ptr, ptr %3, align 8
  call void @llvm.lifetime.end.p0(i64 8, ptr %3) #11
  ret ptr %83
}

; Function Attrs: nounwind uwtable
define internal i32 @p_isURLPath(ptr noundef %0) #0 {
  %2 = alloca ptr, align 8
  %3 = alloca ptr, align 8
  %4 = alloca i32, align 4
  store ptr %0, ptr %2, align 8
  call void @llvm.lifetime.start.p0(i64 8, ptr %3) #11
  %5 = load ptr, ptr %2, align 8
  %6 = call ptr @TParserCopyInit(ptr noundef %5)
  store ptr %6, ptr %3, align 8
  call void @llvm.lifetime.start.p0(i64 4, ptr %4) #11
  store i32 0, ptr %4, align 4
  %7 = load ptr, ptr %3, align 8
  %8 = getelementptr inbounds nuw %struct.TParser, ptr %7, i32 0, i32 6
  %9 = load ptr, ptr %8, align 8
  %10 = call ptr @newTParserPosition(ptr noundef %9)
  %11 = load ptr, ptr %3, align 8
  %12 = getelementptr inbounds nuw %struct.TParser, ptr %11, i32 0, i32 6
  store ptr %10, ptr %12, align 8
  %13 = load ptr, ptr %3, align 8
  %14 = getelementptr inbounds nuw %struct.TParser, ptr %13, i32 0, i32 6
  %15 = load ptr, ptr %14, align 8
  %16 = getelementptr inbounds nuw %struct.TParserPosition, ptr %15, i32 0, i32 5
  store i32 57, ptr %16, align 4
  call void @check_stack_depth()
  %17 = load ptr, ptr %3, align 8
  %18 = call zeroext i1 @TParserGet(ptr noundef %17)
  br i1 %18, label %19, label %70

19:                                               ; preds = %1
  %20 = load ptr, ptr %3, align 8
  %21 = getelementptr inbounds nuw %struct.TParser, ptr %20, i32 0, i32 13
  %22 = load i32, ptr %21, align 8
  %23 = icmp eq i32 %22, 18
  br i1 %23, label %24, label %70

24:                                               ; preds = %19
  %25 = load ptr, ptr %3, align 8
  %26 = getelementptr inbounds nuw %struct.TParser, ptr %25, i32 0, i32 11
  %27 = load i32, ptr %26, align 8
  %28 = load ptr, ptr %2, align 8
  %29 = getelementptr inbounds nuw %struct.TParser, ptr %28, i32 0, i32 6
  %30 = load ptr, ptr %29, align 8
  %31 = getelementptr inbounds nuw %struct.TParserPosition, ptr %30, i32 0, i32 0
  %32 = load i32, ptr %31, align 8
  %33 = add i32 %32, %27
  store i32 %33, ptr %31, align 8
  %34 = load ptr, ptr %3, align 8
  %35 = getelementptr inbounds nuw %struct.TParser, ptr %34, i32 0, i32 12
  %36 = load i32, ptr %35, align 4
  %37 = load ptr, ptr %2, align 8
  %38 = getelementptr inbounds nuw %struct.TParser, ptr %37, i32 0, i32 6
  %39 = load ptr, ptr %38, align 8
  %40 = getelementptr inbounds nuw %struct.TParserPosition, ptr %39, i32 0, i32 1
  %41 = load i32, ptr %40, align 4
  %42 = add i32 %41, %36
  store i32 %42, ptr %40, align 4
  %43 = load ptr, ptr %3, align 8
  %44 = getelementptr inbounds nuw %struct.TParser, ptr %43, i32 0, i32 11
  %45 = load i32, ptr %44, align 8
  %46 = load ptr, ptr %2, align 8
  %47 = getelementptr inbounds nuw %struct.TParser, ptr %46, i32 0, i32 6
  %48 = load ptr, ptr %47, align 8
  %49 = getelementptr inbounds nuw %struct.TParserPosition, ptr %48, i32 0, i32 3
  %50 = load i32, ptr %49, align 4
  %51 = add i32 %50, %45
  store i32 %51, ptr %49, align 4
  %52 = load ptr, ptr %3, align 8
  %53 = getelementptr inbounds nuw %struct.TParser, ptr %52, i32 0, i32 12
  %54 = load i32, ptr %53, align 4
  %55 = load ptr, ptr %2, align 8
  %56 = getelementptr inbounds nuw %struct.TParser, ptr %55, i32 0, i32 6
  %57 = load ptr, ptr %56, align 8
  %58 = getelementptr inbounds nuw %struct.TParserPosition, ptr %57, i32 0, i32 4
  %59 = load i32, ptr %58, align 8
  %60 = add i32 %59, %54
  store i32 %60, ptr %58, align 8
  %61 = load ptr, ptr %3, align 8
  %62 = getelementptr inbounds nuw %struct.TParser, ptr %61, i32 0, i32 6
  %63 = load ptr, ptr %62, align 8
  %64 = getelementptr inbounds nuw %struct.TParserPosition, ptr %63, i32 0, i32 2
  %65 = load i32, ptr %64, align 8
  %66 = load ptr, ptr %2, align 8
  %67 = getelementptr inbounds nuw %struct.TParser, ptr %66, i32 0, i32 6
  %68 = load ptr, ptr %67, align 8
  %69 = getelementptr inbounds nuw %struct.TParserPosition, ptr %68, i32 0, i32 2
  store i32 %65, ptr %69, align 8
  store i32 1, ptr %4, align 4
  br label %70

70:                                               ; preds = %24, %19, %1
  %71 = load ptr, ptr %3, align 8
  call void @TParserCopyClose(ptr noundef %71)
  %72 = load i32, ptr %4, align 4
  call void @llvm.lifetime.end.p0(i64 4, ptr %4) #11
  call void @llvm.lifetime.end.p0(i64 8, ptr %3) #11
  ret i32 %72
}