; Function Attrs: nounwind uwtable
define internal range(i32 0, 2) i32 @p_isURLPath(ptr noundef readonly captures(none) %0) #0 {
  %2 = tail call ptr @palloc0(i64 noundef 80) #16
  %3 = getelementptr inbounds nuw i8, ptr %0, i64 36
  %4 = load i32, ptr %3, align 4
  %5 = getelementptr inbounds nuw i8, ptr %2, i64 36
  store i32 %4, ptr %5, align 4
  %6 = load ptr, ptr %0, align 8
  %7 = getelementptr inbounds nuw i8, ptr %0, i64 40
  %8 = load ptr, ptr %7, align 8
  %9 = load i32, ptr %8, align 8
  %10 = sext i32 %9 to i64
  %11 = getelementptr inbounds i8, ptr %6, i64 %10
  store ptr %11, ptr %2, align 8
  %12 = getelementptr inbounds nuw i8, ptr %0, i64 8
  %13 = load i32, ptr %12, align 8
  %14 = load ptr, ptr %7, align 8
  %15 = load i32, ptr %14, align 8
  %16 = sub i32 %13, %15
  %17 = getelementptr inbounds nuw i8, ptr %2, i64 8
  store i32 %16, ptr %17, align 8
  %18 = getelementptr inbounds nuw i8, ptr %0, i64 32
  %19 = load i8, ptr %18, align 8, !range !4, !noundef !5
  %20 = getelementptr inbounds nuw i8, ptr %2, i64 32
  store i8 %19, ptr %20, align 8
  %21 = getelementptr inbounds nuw i8, ptr %0, i64 24
  %22 = load ptr, ptr %21, align 8
  %.not.i = icmp eq ptr %22, null
  br i1 %.not.i, label %30, label %23

23:                                               ; preds = %1
  %24 = load ptr, ptr %7, align 8
  %25 = getelementptr inbounds nuw i8, ptr %24, i64 4
  %26 = load i32, ptr %25, align 4
  %27 = sext i32 %26 to i64
  %28 = getelementptr inbounds i32, ptr %22, i64 %27
  %29 = getelementptr inbounds nuw i8, ptr %2, i64 24
  store ptr %28, ptr %29, align 8
  br label %30

30:                                               ; preds = %23, %1
  %31 = getelementptr inbounds nuw i8, ptr %0, i64 16
  %32 = load ptr, ptr %31, align 8
  %.not22.i = icmp eq ptr %32, null
  br i1 %.not22.i, label %TParserCopyInit.exit, label %33

33:                                               ; preds = %30
  %34 = load ptr, ptr %7, align 8
  %35 = getelementptr inbounds nuw i8, ptr %34, i64 4
  %36 = load i32, ptr %35, align 4
  %37 = sext i32 %36 to i64
  %38 = getelementptr inbounds i32, ptr %32, i64 %37
  %39 = getelementptr inbounds nuw i8, ptr %2, i64 16
  store ptr %38, ptr %39, align 8
  br label %TParserCopyInit.exit

TParserCopyInit.exit:                             ; preds = %30, %33
  %40 = tail call ptr @palloc(i64 noundef 40) #16
  %41 = getelementptr inbounds nuw i8, ptr %2, i64 40
  tail call void @llvm.memset.p0.i64(ptr noundef nonnull align 8 dereferenceable(40) %40, i8 0, i64 40, i1 false)
  store ptr %40, ptr %41, align 8
  %42 = getelementptr inbounds nuw i8, ptr %40, i64 20
  store i32 0, ptr %42, align 4
  %43 = load ptr, ptr %41, align 8
  %44 = tail call ptr @palloc(i64 noundef 40) #16
  %.not.i17 = icmp eq ptr %43, null
  br i1 %.not.i17, label %46, label %45

45:                                               ; preds = %TParserCopyInit.exit
  tail call void @llvm.memcpy.p0.p0.i64(ptr noundef nonnull align 8 dereferenceable(40) %44, ptr noundef nonnull align 8 dereferenceable(40) %43, i64 24, i1 false)
  br label %newTParserPosition.exit

46:                                               ; preds = %TParserCopyInit.exit
  tail call void @llvm.memset.p0.i64(ptr noundef nonnull align 8 dereferenceable(40) %44, i8 0, i64 24, i1 false)
  br label %newTParserPosition.exit

newTParserPosition.exit:                          ; preds = %45, %46
  %47 = getelementptr inbounds nuw i8, ptr %44, i64 24
  store ptr %43, ptr %47, align 8
  %48 = getelementptr inbounds nuw i8, ptr %44, i64 32
  store ptr null, ptr %48, align 8
  store ptr %44, ptr %41, align 8
  %49 = getelementptr inbounds nuw i8, ptr %44, i64 20
  store i32 57, ptr %49, align 4
  tail call void @check_stack_depth() #16
  %50 = tail call fastcc zeroext i1 @TParserGet(ptr noundef nonnull %2)
  br i1 %50, label %51, label %82

51:                                               ; preds = %newTParserPosition.exit
  %52 = getelementptr inbounds nuw i8, ptr %2, i64 72
  %53 = load i32, ptr %52, align 8
  %54 = icmp eq i32 %53, 18
  br i1 %54, label %55, label %82

55:                                               ; preds = %51
  %56 = getelementptr inbounds nuw i8, ptr %2, i64 64
  %57 = load i32, ptr %56, align 8
  %58 = load ptr, ptr %7, align 8
  %59 = load i32, ptr %58, align 8
  %60 = add i32 %59, %57
  store i32 %60, ptr %58, align 8
  %61 = getelementptr inbounds nuw i8, ptr %2, i64 68
  %62 = load i32, ptr %61, align 4
  %63 = load ptr, ptr %7, align 8
  %64 = getelementptr inbounds nuw i8, ptr %63, i64 4
  %65 = load i32, ptr %64, align 4
  %66 = add i32 %65, %62
  store i32 %66, ptr %64, align 4
  %67 = load i32, ptr %56, align 8
  %68 = load ptr, ptr %7, align 8
  %69 = getelementptr inbounds nuw i8, ptr %68, i64 12
  %70 = load i32, ptr %69, align 4
  %71 = add i32 %70, %67
  store i32 %71, ptr %69, align 4
  %72 = load i32, ptr %61, align 4
  %73 = load ptr, ptr %7, align 8
  %74 = getelementptr inbounds nuw i8, ptr %73, i64 16
  %75 = load i32, ptr %74, align 8
  %76 = add i32 %75, %72
  store i32 %76, ptr %74, align 8
  %77 = load ptr, ptr %41, align 8
  %78 = getelementptr inbounds nuw i8, ptr %77, i64 8
  %79 = load i32, ptr %78, align 8
  %80 = load ptr, ptr %7, align 8
  %81 = getelementptr inbounds nuw i8, ptr %80, i64 8
  store i32 %79, ptr %81, align 8
  br label %82

82:                                               ; preds = %55, %51, %newTParserPosition.exit
  %.0 = phi i32 [ 1, %55 ], [ 0, %51 ], [ 0, %newTParserPosition.exit ]
  %83 = load ptr, ptr %41, align 8
  %.not6.i = icmp eq ptr %83, null
  br i1 %.not6.i, label %TParserCopyClose.exit, label %.lr.ph.i

.lr.ph.i:                                         ; preds = %82, %.lr.ph.i
  %84 = phi ptr [ %86, %.lr.ph.i ], [ %83, %82 ]
  %85 = getelementptr inbounds nuw i8, ptr %84, i64 24
  %86 = load ptr, ptr %85, align 8
  tail call void @pfree(ptr noundef nonnull %84) #16
  store ptr %86, ptr %41, align 8
  %.not.i18 = icmp eq ptr %86, null
  br i1 %.not.i18, label %TParserCopyClose.exit, label %.lr.ph.i, !llvm.loop !34

TParserCopyClose.exit:                            ; preds = %.lr.ph.i, %82
  tail call void @pfree(ptr noundef nonnull %2) #16
  ret i32 %.0
}